target datalayout = "e-m:e-p270:32:32-p271:32:32-p272:64:64-i64:64-i128:128-f80:128-n8:16:32:64-S128"
target triple = "x86_64-pc-linux-gnu"

@ff_ac3_band_start_tab = constant [51 x i8] c"\00\01\02\03\04\05\06\07\08\09\0A\0B\0C\0D\0E\0F\10\11\12\13\14\15\16\17\18\19\1A\1B\1C\1F\22%(+.17=CIOUamy\85\9D\B5\CD\E5\FD", align 16

; Function Attrs: nounwind uwtable
define void @ff_ac3_bit_alloc_calc_psd(ptr noundef %0, i32 noundef %1, i32 noundef %2, ptr noundef %3, ptr noundef %4) #0 {
  %6 = alloca ptr, align 8
  %7 = alloca i32, align 4
  %8 = alloca i32, align 4
  %9 = alloca ptr, align 8
  %10 = alloca ptr, align 8
  %11 = alloca i32, align 4
  %12 = alloca i32, align 4
  %13 = alloca i32, align 4
  %14 = alloca i32, align 4
  %15 = alloca i32, align 4
  %16 = alloca i32, align 4
  store ptr %0, ptr %6, align 8, !tbaa !4
  store i32 %1, ptr %7, align 4, !tbaa !9
  store i32 %2, ptr %8, align 4, !tbaa !9
  store ptr %3, ptr %9, align 8, !tbaa !11
  store ptr %4, ptr %10, align 8, !tbaa !11
  call void @llvm.lifetime.start.p0(i64 4, ptr %11) #3
  call void @llvm.lifetime.start.p0(i64 4, ptr %12) #3
  %17 = load i32, ptr %7, align 4, !tbaa !9
  store i32 %17, ptr %11, align 4, !tbaa !9
  br label %18

18:                                               ; preds = %36, %5
  %19 = load i32, ptr %11, align 4, !tbaa !9
  %20 = load i32, ptr %8, align 4, !tbaa !9
  %21 = icmp slt i32 %19, %20
  br i1 %21, label %22, label %39

22:                                               ; preds = %18
  %23 = load ptr, ptr %6, align 8, !tbaa !4
  %24 = load i32, ptr %11, align 4, !tbaa !9
  %25 = sext i32 %24 to i64
  %26 = getelementptr inbounds i8, ptr %23, i64 %25
  %27 = load i8, ptr %26, align 1, !tbaa !13
  %28 = sext i8 %27 to i32
  %29 = shl i32 %28, 7
  %30 = sub nsw i32 3072, %29
  %31 = trunc i32 %30 to i16
  %32 = load ptr, ptr %9, align 8, !tbaa !11
  %33 = load i32, ptr %11, align 4, !tbaa !9
  %34 = sext i32 %33 to i64
  %35 = getelementptr inbounds i16, ptr %32, i64 %34
  store i16 %31, ptr %35, align 2, !tbaa !14
  br label %36

36:                                               ; preds = %22
  %37 = load i32, ptr %11, align 4, !tbaa !9
  %38 = add nsw i32 %37, 1
  store i32 %38, ptr %11, align 4, !tbaa !9
  br label %18, !llvm.loop !16

39:                                               ; preds = %18
  %40 = load i32, ptr %7, align 4, !tbaa !9
  store i32 %40, ptr %11, align 4, !tbaa !9
  %41 = load i32, ptr %7, align 4, !tbaa !9
  %42 = sext i32 %41 to i64
  %43 = getelementptr inbounds [253 x i8], ptr @ff_ac3_bin_to_band_tab, i64 0, i64 %42
  %44 = load i8, ptr %43, align 1, !tbaa !13
  %45 = zext i8 %44 to i32
  store i32 %45, ptr %12, align 4, !tbaa !9
  br label %46

46:                                               ; preds = %144, %39
  call void @llvm.lifetime.start.p0(i64 4, ptr %13) #3
  %47 = load ptr, ptr %9, align 8, !tbaa !11
  %48 = load i32, ptr %11, align 4, !tbaa !9
  %49 = add nsw i32 %48, 1
  store i32 %49, ptr %11, align 4, !tbaa !9
  %50 = sext i32 %48 to i64
  %51 = getelementptr inbounds i16, ptr %47, i64 %50
  %52 = load i16, ptr %51, align 2, !tbaa !14
  %53 = sext i16 %52 to i32
  store i32 %53, ptr %13, align 4, !tbaa !9
  call void @llvm.lifetime.start.p0(i64 4, ptr %14) #3
  %54 = load i32, ptr %12, align 4, !tbaa !9
  %55 = add nsw i32 %54, 1
  %56 = sext i32 %55 to i64
  %57 = getelementptr inbounds [51 x i8], ptr @ff_ac3_band_start_tab, i64 0, i64 %56
  %58 = load i8, ptr %57, align 1, !tbaa !13
  %59 = zext i8 %58 to i32
  %60 = load i32, ptr %8, align 4, !tbaa !9
  %61 = icmp sgt i32 %59, %60
  br i1 %61, label %62, label %64

62:                                               ; preds = %46
  %63 = load i32, ptr %8, align 4, !tbaa !9
  br label %71

64:                                               ; preds = %46
  %65 = load i32, ptr %12, align 4, !tbaa !9
  %66 = add nsw i32 %65, 1
  %67 = sext i32 %66 to i64
  %68 = getelementptr inbounds [51 x i8], ptr @ff_ac3_band_start_tab, i64 0, i64 %67
  %69 = load i8, ptr %68, align 1, !tbaa !13
  %70 = zext i8 %69 to i32
  br label %71

71:                                               ; preds = %64, %62
  %72 = phi i32 [ %63, %62 ], [ %70, %64 ]
  store i32 %72, ptr %14, align 4, !tbaa !9
  br label %73

73:                                               ; preds = %133, %71
  %74 = load i32, ptr %11, align 4, !tbaa !9
  %75 = load i32, ptr %14, align 4, !tbaa !9
  %76 = icmp slt i32 %74, %75
  br i1 %76, label %77, label %136

77:                                               ; preds = %73
  call void @llvm.lifetime.start.p0(i64 4, ptr %15) #3
  %78 = load i32, ptr %13, align 4, !tbaa !9
  %79 = load ptr, ptr %9, align 8, !tbaa !11
  %80 = load i32, ptr %11, align 4, !tbaa !9
  %81 = sext i32 %80 to i64
  %82 = getelementptr inbounds i16, ptr %79, i64 %81
  %83 = load i16, ptr %82, align 2, !tbaa !14
  %84 = sext i16 %83 to i32
  %85 = icmp sgt i32 %78, %84
  br i1 %85, label %86, label %88

86:                                               ; preds = %77
  %87 = load i32, ptr %13, align 4, !tbaa !9
  br label %95

88:                                               ; preds = %77
  %89 = load ptr, ptr %9, align 8, !tbaa !11
  %90 = load i32, ptr %11, align 4, !tbaa !9
  %91 = sext i32 %90 to i64
  %92 = getelementptr inbounds i16, ptr %89, i64 %91
  %93 = load i16, ptr %92, align 2, !tbaa !14
  %94 = sext i16 %93 to i32
  br label %95

95:                                               ; preds = %88, %86
  %96 = phi i32 [ %87, %86 ], [ %94, %88 ]
  store i32 %96, ptr %15, align 4, !tbaa !9
  call void @llvm.lifetime.start.p0(i64 4, ptr %16) #3
  %97 = load i32, ptr %15, align 4, !tbaa !9
  %98 = load i32, ptr %13, align 4, !tbaa !9
  %99 = load ptr, ptr %9, align 8, !tbaa !11
  %100 = load i32, ptr %11, align 4, !tbaa !9
  %101 = sext i32 %100 to i64
  %102 = getelementptr inbounds i16, ptr %99, i64 %101
  %103 = load i16, ptr %102, align 2, !tbaa !14
  %104 = sext i16 %103 to i32
  %105 = add nsw i32 %98, %104
  %106 = add nsw i32 %105, 1
  %107 = ashr i32 %106, 1
  %108 = sub nsw i32 %97, %107
  %109 = icmp sgt i32 %108, 255
  br i1 %109, label %110, label %111

110:                                              ; preds = %95
  br label %124

111:                                              ; preds = %95
  %112 = load i32, ptr %15, align 4, !tbaa !9
  %113 = load i32, ptr %13, align 4, !tbaa !9
  %114 = load ptr, ptr %9, align 8, !tbaa !11
  %115 = load i32, ptr %11, align 4, !tbaa !9
  %116 = sext i32 %115 to i64
  %117 = getelementptr inbounds i16, ptr %114, i64 %116
  %118 = load i16, ptr %117, align 2, !tbaa !14
  %119 = sext i16 %118 to i32
  %120 = add nsw i32 %113, %119
  %121 = add nsw i32 %120, 1
  %122 = ashr i32 %121, 1
  %123 = sub nsw i32 %112, %122
  br label %124

124:                                              ; preds = %111, %110
  %125 = phi i32 [ 255, %110 ], [ %123, %111 ]
  store i32 %125, ptr %16, align 4, !tbaa !9
  %126 = load i32, ptr %15, align 4, !tbaa !9
  %127 = load i32, ptr %16, align 4, !tbaa !9
  %128 = sext i32 %127 to i64
  %129 = getelementptr inbounds [260 x i8], ptr @ac3_log_add_tab, i64 0, i64 %128
  %130 = load i8, ptr %129, align 1, !tbaa !13
  %131 = zext i8 %130 to i32
  %132 = add nsw i32 %126, %131
  store i32 %132, ptr %13, align 4, !tbaa !9
  call void @llvm.lifetime.end.p0(i64 4, ptr %16) #3
  call void @llvm.lifetime.end.p0(i64 4, ptr %15) #3
  br label %133

133:                                              ; preds = %124
  %134 = load i32, ptr %11, align 4, !tbaa !9
  %135 = add nsw i32 %134, 1
  store i32 %135, ptr %11, align 4, !tbaa !9
  br label %73, !llvm.loop !18

136:                                              ; preds = %73
  %137 = load i32, ptr %13, align 4, !tbaa !9
  %138 = trunc i32 %137 to i16
  %139 = load ptr, ptr %10, align 8, !tbaa !11
  %140 = load i32, ptr %12, align 4, !tbaa !9
  %141 = add nsw i32 %140, 1
  store i32 %141, ptr %12, align 4, !tbaa !9
  %142 = sext i32 %140 to i64
  %143 = getelementptr inbounds i16, ptr %139, i64 %142
  store i16 %138, ptr %143, align 2, !tbaa !14
  call void @llvm.lifetime.end.p0(i64 4, ptr %14) #3
  call void @llvm.lifetime.end.p0(i64 4, ptr %13) #3
  br label %144

144:                                              ; preds = %136
  %145 = load i32, ptr %8, align 4, !tbaa !9
  %146 = load i32, ptr %12, align 4, !tbaa !9
  %147 = sext i32 %146 to i64
  %148 = getelementptr inbounds [51 x i8], ptr @ff_ac3_band_start_tab, i64 0, i64 %147
  %149 = load i8, ptr %148, align 1, !tbaa !13
  %150 = zext i8 %149 to i32
  %151 = icmp sgt i32 %145, %150
  br i1 %151, label %46, label %152, !llvm.loop !19

152:                                              ; preds = %144
  call void @llvm.lifetime.end.p0(i64 4, ptr %12) #3
  call void @llvm.lifetime.end.p0(i64 4, ptr %11) #3
  ret void
}