; Function Attrs: nofree norecurse nosync nounwind memory(argmem: readwrite) uwtable
define void @ff_ac3_bit_alloc_calc_psd(ptr noundef readonly captures(none) %0, i32 noundef %1, i32 noundef %2, ptr noundef captures(none) %3, ptr noundef writeonly captures(none) %4) local_unnamed_addr #0 {
  %6 = icmp slt i32 %1, %2
  %7 = sext i32 %1 to i64
  br i1 %6, label %.lr.ph.preheader, label %._crit_edge

.lr.ph.preheader:                                 ; preds = %5
  %wide.trip.count = sext i32 %2 to i64
  br label %.lr.ph

.lr.ph:                                           ; preds = %.lr.ph.preheader, %.lr.ph
  %indvars.iv = phi i64 [ %7, %.lr.ph.preheader ], [ %indvars.iv.next, %.lr.ph ]
  %8 = getelementptr inbounds i8, ptr %0, i64 %indvars.iv
  %9 = load i8, ptr %8, align 1, !tbaa !4
  %10 = sext i8 %9 to i16
  %11 = shl nsw i16 %10, 7
  %12 = sub nsw i16 3072, %11
  %13 = getelementptr inbounds i16, ptr %3, i64 %indvars.iv
  store i16 %12, ptr %13, align 2, !tbaa !7
  %indvars.iv.next = add nsw i64 %indvars.iv, 1
  %exitcond.not = icmp eq i64 %indvars.iv.next, %wide.trip.count
  br i1 %exitcond.not, label %._crit_edge, label %.lr.ph, !llvm.loop !9

._crit_edge:                                      ; preds = %.lr.ph, %5
  %14 = getelementptr inbounds [253 x i8], ptr @ff_ac3_bin_to_band_tab, i64 0, i64 %7
  %15 = load i8, ptr %14, align 1, !tbaa !4
  %16 = zext i8 %15 to i64
  br label %17

17:                                               ; preds = %._crit_edge51, %._crit_edge
  %indvars.iv59 = phi i64 [ %indvars.iv.next60, %._crit_edge51 ], [ %16, %._crit_edge ]
  %.1 = phi i32 [ %.2.lcssa, %._crit_edge51 ], [ %1, %._crit_edge ]
  %18 = sext i32 %.1 to i64
  %19 = getelementptr inbounds i16, ptr %3, i64 %18
  %20 = load i16, ptr %19, align 2, !tbaa !7
  %indvars.iv.next60 = add nuw nsw i64 %indvars.iv59, 1
  %21 = getelementptr inbounds nuw [51 x i8], ptr @ff_ac3_band_start_tab, i64 0, i64 %indvars.iv.next60
  %22 = load i8, ptr %21, align 1, !tbaa !4
  %23 = zext i8 %22 to i32
  %. = tail call i32 @llvm.smin.i32(i32 %2, i32 %23)
  %.246 = add nsw i32 %.1, 1
  %24 = icmp slt i32 %.246, %.
  br i1 %24, label %.lr.ph50.preheader, label %._crit_edge51

.lr.ph50.preheader:                               ; preds = %17
  %25 = sext i16 %20 to i32
  %26 = add nsw i64 %18, 1
  br label %.lr.ph50

.lr.ph50:                                         ; preds = %.lr.ph50.preheader, %.lr.ph50
  %indvars.iv55 = phi i64 [ %26, %.lr.ph50.preheader ], [ %indvars.iv.next56, %.lr.ph50 ]
  %.04047 = phi i32 [ %25, %.lr.ph50.preheader ], [ %38, %.lr.ph50 ]
  %27 = getelementptr inbounds i16, ptr %3, i64 %indvars.iv55
  %28 = load i16, ptr %27, align 2, !tbaa !7
  %29 = sext i16 %28 to i32
  %.040. = tail call i32 @llvm.smax.i32(i32 %.04047, i32 %29)
  %30 = add i32 %.04047, 1
  %31 = add i32 %30, %29
  %32 = ashr i32 %31, 1
  %33 = sub nsw i32 %.040., %32
  %narrow = tail call i32 @llvm.smin.i32(i32 %33, i32 255)
  %34 = sext i32 %narrow to i64
  %35 = getelementptr inbounds [260 x i8], ptr @ac3_log_add_tab, i64 0, i64 %34
  %36 = load i8, ptr %35, align 1, !tbaa !4
  %37 = zext i8 %36 to i32
  %38 = add nsw i32 %.040., %37
  %indvars.iv.next56 = add nsw i64 %indvars.iv55, 1
  %lftr.wideiv = trunc i64 %indvars.iv.next56 to i32
  %exitcond58.not = icmp eq i32 %., %lftr.wideiv
  br i1 %exitcond58.not, label %._crit_edge51.loopexit, label %.lr.ph50, !llvm.loop !11

._crit_edge51.loopexit:                           ; preds = %.lr.ph50
  %39 = trunc i32 %38 to i16
  br label %._crit_edge51

._crit_edge51:                                    ; preds = %._crit_edge51.loopexit, %17
  %.040.lcssa = phi i16 [ %20, %17 ], [ %39, %._crit_edge51.loopexit ]
  %.2.lcssa = phi i32 [ %.246, %17 ], [ %., %._crit_edge51.loopexit ]
  %40 = getelementptr inbounds nuw i16, ptr %4, i64 %indvars.iv59
  store i16 %.040.lcssa, ptr %40, align 2, !tbaa !7
  %41 = icmp sgt i32 %2, %23
  br i1 %41, label %17, label %42, !llvm.loop !12

42:                                               ; preds = %._crit_edge51
  ret void
}